target datalayout = "e-m:e-p270:32:32-p271:32:32-p272:64:64-i64:64-i128:128-f80:128-n8:16:32:64-S128"
target triple = "x86_64-unknown-linux-gnu"

%class.ast = type { i32, i24, i32, i32 }
%class.app = type { %class.expr, ptr, i32, [0 x ptr] }
%class.expr = type { %class.ast }
%"class.pattern_inference_cfg::collect" = type { ptr, ptr, i32, i32, %class.map, %class.ptr_vector.14, %class.svector.16 }
%class.map = type { %class.table2map }
%class.table2map = type { %class.core_hashtable.10 }
%class.core_hashtable.10 = type <{ ptr, i32, i32, i32, [4 x i8] }>
%class.ptr_vector.14 = type { %class.vector.15 }
%class.vector.15 = type { ptr }
%class.svector.16 = type { %class.vector.17 }
%class.vector.17 = type { ptr }
%class.symbol = type { ptr }
%"struct.pattern_inference_cfg::collect::entry" = type <{ ptr, i32, [4 x i8] }>
%class.quantifier = type { %class.expr, i32, i32, ptr, ptr, i32, i32, i8, i8, %class.symbol, %class.symbol, i32, i32, [0 x i8] }
%struct._key_data = type { %"struct.pattern_inference_cfg::collect::entry", ptr }

; Function Attrs: mustprogress nounwind uwtable
define linkonce_odr hidden void @_ZN9_key_dataIN21pattern_inference_cfg7collect5entryEPNS1_4infoEEC2ERKS2_(ptr noundef nonnull align 8 dereferenceable(24) %this, ptr noundef nonnull align 8 dereferenceable(12) %k) unnamed_addr #5 comdat align 2 {
entry:
  %this.addr = alloca ptr, align 8
  %k.addr = alloca ptr, align 8
  store ptr %this, ptr %this.addr, align 8
  store ptr %k, ptr %k.addr, align 8
  %this1 = load ptr, ptr %this.addr, align 8
  %m_key = getelementptr inbounds %struct._key_data, ptr %this1, i32 0, i32 0
  %0 = load ptr, ptr %k.addr, align 8
  call void @llvm.memcpy.p0.p0.i64(ptr align 8 %m_key, ptr align 8 %0, i64 16, i1 false)
  ret void
}

; Function Attrs: mustprogress uwtable
define linkonce_odr hidden noundef ptr @_ZNK9table2mapI17default_map_entryIN21pattern_inference_cfg7collect5entryEPNS2_4infoEE8obj_hashIS3_E10default_eqIS3_EE9find_coreERKS3_(ptr noundef nonnull align 8 dereferenceable(24) %this, ptr noundef nonnull align 8 dereferenceable(12) %k) #4 comdat align 2 {
entry:
  %this.addr = alloca ptr, align 8
  %k.addr = alloca ptr, align 8
  %ref.tmp = alloca %struct._key_data, align 8
  store ptr %this, ptr %this.addr, align 8
  store ptr %k, ptr %k.addr, align 8
  %this1 = load ptr, ptr %this.addr, align 8
  %m_table = getelementptr inbounds %class.table2map, ptr %this1, i32 0, i32 0
  %0 = load ptr, ptr %k.addr, align 8
  call void @_ZN9_key_dataIN21pattern_inference_cfg7collect5entryEPNS1_4infoEEC2ERKS2_(ptr noundef nonnull align 8 dereferenceable(24) %ref.tmp, ptr noundef nonnull align 8 dereferenceable(12) %0)
  %call = call noundef ptr @_ZNK14core_hashtableI17default_map_entryIN21pattern_inference_cfg7collect5entryEPNS2_4infoEEN9table2mapIS6_8obj_hashIS3_E10default_eqIS3_EE15entry_hash_procENSC_13entry_eq_procEE9find_coreERK9_key_dataIS3_S5_E(ptr noundef nonnull align 8 dereferenceable(20) %m_table, ptr noundef nonnull align 8 dereferenceable(24) %ref.tmp)
  ret ptr %call
}

; Function Attrs: mustprogress uwtable
define linkonce_odr hidden noundef nonnull align 8 dereferenceable(8) ptr @_ZN6vectorIN21pattern_inference_cfg7collect5entryELb0EjE9push_backERKS2_(ptr noundef nonnull align 8 dereferenceable(8) %this, ptr noundef nonnull align 8 dereferenceable(12) %elem) #4 comdat align 2 {
entry:
  %this.addr = alloca ptr, align 8
  %elem.addr = alloca ptr, align 8
  store ptr %this, ptr %this.addr, align 8
  store ptr %elem, ptr %elem.addr, align 8
  %this1 = load ptr, ptr %this.addr, align 8
  %m_data = getelementptr inbounds %class.vector.17, ptr %this1, i32 0, i32 0
  %0 = load ptr, ptr %m_data, align 8
  %cmp = icmp eq ptr %0, null
  br i1 %cmp, label %if.then, label %lor.lhs.false

lor.lhs.false:                                    ; preds = %entry
  %m_data2 = getelementptr inbounds %class.vector.17, ptr %this1, i32 0, i32 0
  %1 = load ptr, ptr %m_data2, align 8
  %arrayidx = getelementptr inbounds i32, ptr %1, i64 -1
  %2 = load i32, ptr %arrayidx, align 4
  %m_data3 = getelementptr inbounds %class.vector.17, ptr %this1, i32 0, i32 0
  %3 = load ptr, ptr %m_data3, align 8
  %arrayidx4 = getelementptr inbounds i32, ptr %3, i64 -2
  %4 = load i32, ptr %arrayidx4, align 4
  %cmp5 = icmp eq i32 %2, %4
  br i1 %cmp5, label %if.then, label %if.end

if.then:                                          ; preds = %lor.lhs.false, %entry
  call void @_ZN6vectorIN21pattern_inference_cfg7collect5entryELb0EjE13expand_vectorEv(ptr noundef nonnull align 8 dereferenceable(8) %this1)
  br label %if.end

if.end:                                           ; preds = %if.then, %lor.lhs.false
  %m_data6 = getelementptr inbounds %class.vector.17, ptr %this1, i32 0, i32 0
  %5 = load ptr, ptr %m_data6, align 8
  %m_data7 = getelementptr inbounds %class.vector.17, ptr %this1, i32 0, i32 0
  %6 = load ptr, ptr %m_data7, align 8
  %arrayidx8 = getelementptr inbounds i32, ptr %6, i64 -1
  %7 = load i32, ptr %arrayidx8, align 4
  %idx.ext = zext i32 %7 to i64
  %add.ptr = getelementptr inbounds %"struct.pattern_inference_cfg::collect::entry", ptr %5, i64 %idx.ext
  %8 = load ptr, ptr %elem.addr, align 8
  call void @llvm.memcpy.p0.p0.i64(ptr align 8 %add.ptr, ptr align 8 %8, i64 16, i1 false)
  %m_data9 = getelementptr inbounds %class.vector.17, ptr %this1, i32 0, i32 0
  %9 = load ptr, ptr %m_data9, align 8
  %arrayidx10 = getelementptr inbounds i32, ptr %9, i64 -1
  %10 = load i32, ptr %arrayidx10, align 4
  %inc = add i32 %10, 1
  store i32 %inc, ptr %arrayidx10, align 4
  ret ptr %this1
}

; Function Attrs: mustprogress uwtable
define linkonce_odr hidden noundef zeroext i1 @_ZNK9table2mapI17default_map_entryIN21pattern_inference_cfg7collect5entryEPNS2_4infoEE8obj_hashIS3_E10default_eqIS3_EE8containsERKS3_(ptr noundef nonnull align 8 dereferenceable(24) %this, ptr noundef nonnull align 8 dereferenceable(12) %k) #4 comdat align 2 {
entry:
  %this.addr = alloca ptr, align 8
  %k.addr = alloca ptr, align 8
  store ptr %this, ptr %this.addr, align 8
  store ptr %k, ptr %k.addr, align 8
  %this1 = load ptr, ptr %this.addr, align 8
  %0 = load ptr, ptr %k.addr, align 8
  %call = call noundef ptr @_ZNK9table2mapI17default_map_entryIN21pattern_inference_cfg7collect5entryEPNS2_4infoEE8obj_hashIS3_E10default_eqIS3_EE9find_coreERKS3_(ptr noundef nonnull align 8 dereferenceable(24) %this1, ptr noundef nonnull align 8 dereferenceable(12) %0)
  %cmp = icmp ne ptr %call, null
  ret i1 %cmp
}

; Function Attrs: mustprogress nounwind uwtable
define linkonce_odr hidden void @_ZN21pattern_inference_cfg7collect5entryC2EP4exprj(ptr noundef nonnull align 8 dereferenceable(12) %this, ptr noundef %n, i32 noundef %d) unnamed_addr #5 comdat align 2 {
entry:
  %this.addr = alloca ptr, align 8
  %n.addr = alloca ptr, align 8
  %d.addr = alloca i32, align 4
  store ptr %this, ptr %this.addr, align 8
  store ptr %n, ptr %n.addr, align 8
  store i32 %d, ptr %d.addr, align 4
  %this1 = load ptr, ptr %this.addr, align 8
  %m_node = getelementptr inbounds %"struct.pattern_inference_cfg::collect::entry", ptr %this1, i32 0, i32 0
  %0 = load ptr, ptr %n.addr, align 8
  store ptr %0, ptr %m_node, align 8
  %m_delta = getelementptr inbounds %"struct.pattern_inference_cfg::collect::entry", ptr %this1, i32 0, i32 1
  %1 = load i32, ptr %d.addr, align 4
  store i32 %1, ptr %m_delta, align 8
  ret void
}

; Function Attrs: mustprogress nounwind uwtable
define linkonce_odr hidden noundef i32 @_ZNK10quantifier13get_num_declsEv(ptr noundef nonnull align 8 dereferenceable(80) %this) #5 comdat align 2 {
entry:
  %this.addr = alloca ptr, align 8
  store ptr %this, ptr %this.addr, align 8
  %this1 = load ptr, ptr %this.addr, align 8
  %m_num_decls = getelementptr inbounds %class.quantifier, ptr %this1, i32 0, i32 2
  %0 = load i32, ptr %m_num_decls, align 4
  ret i32 %0
}

; Function Attrs: mustprogress nounwind uwtable
define linkonce_odr hidden noundef ptr @_ZNK10quantifier8get_exprEv(ptr noundef nonnull align 8 dereferenceable(80) %this) #5 comdat align 2 {
entry:
  %this.addr = alloca ptr, align 8
  store ptr %this, ptr %this.addr, align 8
  %this1 = load ptr, ptr %this.addr, align 8
  %m_expr = getelementptr inbounds %class.quantifier, ptr %this1, i32 0, i32 3
  %0 = load ptr, ptr %m_expr, align 8
  ret ptr %0
}

; Function Attrs: mustprogress nounwind uwtable
define linkonce_odr hidden noundef ptr @_Z13to_quantifierP3ast(ptr noundef %n) #5 comdat {
entry:
  %n.addr = alloca ptr, align 8
  store ptr %n, ptr %n.addr, align 8
  %0 = load ptr, ptr %n.addr, align 8
  ret ptr %0
}

; Function Attrs: mustprogress uwtable
define linkonce_odr hidden void @_ZN21pattern_inference_cfg7collect5visitEP4exprjRb(ptr noundef nonnull align 8 dereferenceable(64) %this, ptr noundef %n, i32 noundef %delta, ptr noundef nonnull align 1 dereferenceable(1) %visited) #4 comdat align 2 {
entry:
  %this.addr = alloca ptr, align 8
  %n.addr = alloca ptr, align 8
  %delta.addr = alloca i32, align 4
  %visited.addr = alloca ptr, align 8
  %e = alloca %"struct.pattern_inference_cfg::collect::entry", align 8
  store ptr %this, ptr %this.addr, align 8
  store ptr %n, ptr %n.addr, align 8
  store i32 %delta, ptr %delta.addr, align 4
  store ptr %visited, ptr %visited.addr, align 8
  %this1 = load ptr, ptr %this.addr, align 8
  %0 = load ptr, ptr %n.addr, align 8
  %1 = load i32, ptr %delta.addr, align 4
  call void @_ZN21pattern_inference_cfg7collect5entryC2EP4exprj(ptr noundef nonnull align 8 dereferenceable(12) %e, ptr noundef %0, i32 noundef %1)
  %m_cache = getelementptr inbounds %"class.pattern_inference_cfg::collect", ptr %this1, i32 0, i32 4
  %call = call noundef zeroext i1 @_ZNK9table2mapI17default_map_entryIN21pattern_inference_cfg7collect5entryEPNS2_4infoEE8obj_hashIS3_E10default_eqIS3_EE8containsERKS3_(ptr noundef nonnull align 8 dereferenceable(24) %m_cache, ptr noundef nonnull align 8 dereferenceable(12) %e)
  br i1 %call, label %if.end, label %if.then

if.then:                                          ; preds = %entry
  %m_todo = getelementptr inbounds %"class.pattern_inference_cfg::collect", ptr %this1, i32 0, i32 6
  %call2 = call noundef nonnull align 8 dereferenceable(8) ptr @_ZN6vectorIN21pattern_inference_cfg7collect5entryELb0EjE9push_backERKS2_(ptr noundef nonnull align 8 dereferenceable(8) %m_todo, ptr noundef nonnull align 8 dereferenceable(12) %e)
  %2 = load ptr, ptr %visited.addr, align 8
  store i8 0, ptr %2, align 1
  br label %if.end

if.end:                                           ; preds = %if.then, %entry
  ret void
}

; Function Attrs: mustprogress nounwind uwtable
define linkonce_odr hidden noundef ptr @_ZNK3app7get_argEj(ptr noundef nonnull align 8 dereferenceable(32) %this, i32 noundef %idx) #5 comdat align 2 {
entry:
  %this.addr = alloca ptr, align 8
  %idx.addr = alloca i32, align 4
  store ptr %this, ptr %this.addr, align 8
  store i32 %idx, ptr %idx.addr, align 4
  %this1 = load ptr, ptr %this.addr, align 8
  %m_args = getelementptr inbounds %class.app, ptr %this1, i32 0, i32 3
  %0 = load i32, ptr %idx.addr, align 4
  %idxprom = zext i32 %0 to i64
  %arrayidx = getelementptr inbounds [0 x ptr], ptr %m_args, i64 0, i64 %idxprom
  %1 = load ptr, ptr %arrayidx, align 8
  ret ptr %1
}

; Function Attrs: mustprogress nounwind uwtable
define linkonce_odr hidden noundef i32 @_ZNK3app12get_num_argsEv(ptr noundef nonnull align 8 dereferenceable(32) %this) #5 comdat align 2 {
entry:
  %this.addr = alloca ptr, align 8
  store ptr %this, ptr %this.addr, align 8
  %this1 = load ptr, ptr %this.addr, align 8
  %m_num_args = getelementptr inbounds %class.app, ptr %this1, i32 0, i32 2
  %0 = load i32, ptr %m_num_args, align 8
  ret i32 %0
}

; Function Attrs: mustprogress nounwind uwtable
define linkonce_odr hidden noundef ptr @_Z6to_appP3ast(ptr noundef %n) #5 comdat {
entry:
  %n.addr = alloca ptr, align 8
  store ptr %n, ptr %n.addr, align 8
  %0 = load ptr, ptr %n.addr, align 8
  ret ptr %0
}

; Function Attrs: mustprogress nounwind uwtable
define linkonce_odr hidden noundef i32 @_ZNK3ast8get_kindEv(ptr noundef nonnull align 4 dereferenceable(16) %this) #5 comdat align 2 {
entry:
  %this.addr = alloca ptr, align 8
  store ptr %this, ptr %this.addr, align 8
  %this1 = load ptr, ptr %this.addr, align 8
  %m_kind = getelementptr inbounds %class.ast, ptr %this1, i32 0, i32 1
  %bf.load = load i32, ptr %m_kind, align 4
  %bf.clear = and i32 %bf.load, 65535
  ret i32 %bf.clear
}

; Function Attrs: mustprogress uwtable
define hidden noundef zeroext i1 @_ZN21pattern_inference_cfg7collect14visit_childrenEP4exprj(ptr noundef nonnull align 8 dereferenceable(64) %this, ptr noundef %n, i32 noundef %delta) #4 align 2 {
entry:
  %this.addr = alloca ptr, align 8
  %n.addr = alloca ptr, align 8
  %delta.addr = alloca i32, align 4
  %visited = alloca i8, align 1
  %i = alloca i32, align 4
  store ptr %this, ptr %this.addr, align 8
  store ptr %n, ptr %n.addr, align 8
  store i32 %delta, ptr %delta.addr, align 4
  %this1 = load ptr, ptr %this.addr, align 8
  store i8 1, ptr %visited, align 1
  %0 = load ptr, ptr %n.addr, align 8
  %call = call noundef i32 @_ZNK3ast8get_kindEv(ptr noundef nonnull align 4 dereferenceable(16) %0)
  switch i32 %call, label %sw.default [
    i32 0, label %sw.bb
    i32 2, label %sw.bb6
  ]

sw.bb:                                            ; preds = %entry
  %1 = load ptr, ptr %n.addr, align 8
  %call2 = call noundef ptr @_Z6to_appP3ast(ptr noundef %1)
  %call3 = call noundef i32 @_ZNK3app12get_num_argsEv(ptr noundef nonnull align 8 dereferenceable(32) %call2)
  store i32 %call3, ptr %i, align 4
  br label %while.cond

while.cond:                                       ; preds = %while.body, %sw.bb
  %2 = load i32, ptr %i, align 4
  %cmp = icmp ugt i32 %2, 0
  br i1 %cmp, label %while.body, label %while.end

while.body:                                       ; preds = %while.cond
  %3 = load i32, ptr %i, align 4
  %dec = add i32 %3, -1
  store i32 %dec, ptr %i, align 4
  %4 = load ptr, ptr %n.addr, align 8
  %call4 = call noundef ptr @_Z6to_appP3ast(ptr noundef %4)
  %5 = load i32, ptr %i, align 4
  %call5 = call noundef ptr @_ZNK3app7get_argEj(ptr noundef nonnull align 8 dereferenceable(32) %call4, i32 noundef %5)
  %6 = load i32, ptr %delta.addr, align 4
  call void @_ZN21pattern_inference_cfg7collect5visitEP4exprjRb(ptr noundef nonnull align 8 dereferenceable(64) %this1, ptr noundef %call5, i32 noundef %6, ptr noundef nonnull align 1 dereferenceable(1) %visited)
  br label %while.cond, !llvm.loop !12

while.end:                                        ; preds = %while.cond
  br label %sw.epilog

sw.bb6:                                           ; preds = %entry
  %7 = load ptr, ptr %n.addr, align 8
  %call7 = call noundef ptr @_Z13to_quantifierP3ast(ptr noundef %7)
  %call8 = call noundef ptr @_ZNK10quantifier8get_exprEv(ptr noundef nonnull align 8 dereferenceable(80) %call7)
  %8 = load i32, ptr %delta.addr, align 4
  %9 = load ptr, ptr %n.addr, align 8
  %call9 = call noundef ptr @_Z13to_quantifierP3ast(ptr noundef %9)
  %call10 = call noundef i32 @_ZNK10quantifier13get_num_declsEv(ptr noundef nonnull align 8 dereferenceable(80) %call9)
  %add = add i32 %8, %call10
  call void @_ZN21pattern_inference_cfg7collect5visitEP4exprjRb(ptr noundef nonnull align 8 dereferenceable(64) %this1, ptr noundef %call8, i32 noundef %add, ptr noundef nonnull align 1 dereferenceable(1) %visited)
  br label %sw.epilog

sw.default:                                       ; preds = %entry
  br label %sw.epilog

sw.epilog:                                        ; preds = %sw.default, %sw.bb6, %while.end
  %10 = load i8, ptr %visited, align 1
  %tobool = trunc i8 %10 to i1
  ret i1 %tobool
}