; Function Attrs: mustprogress uwtable
define hidden noundef zeroext i1 @_ZN21pattern_inference_cfg7collect14visit_childrenEP4exprj(ptr noundef nonnull align 8 dereferenceable(64) %this, ptr nocapture noundef readonly %n, i32 noundef %delta) local_unnamed_addr #3 align 2 {
entry:
  %ref.tmp.i.i.i8 = alloca %struct._key_data, align 8
  %ref.tmp.i.i.i = alloca %struct._key_data, align 8
  %m_kind.i = getelementptr inbounds i8, ptr %n, i64 4
  %bf.load.i = load i32, ptr %m_kind.i, align 4
  %trunc = trunc i32 %bf.load.i to i16
  switch i16 %trunc, label %sw.epilog [
    i16 0, label %sw.bb
    i16 2, label %sw.bb6
  ]

sw.bb:                                            ; preds = %entry
  %m_num_args.i = getelementptr inbounds i8, ptr %n, i64 24
  %0 = load i32, ptr %m_num_args.i, align 8
  %cmp.not31 = icmp eq i32 %0, 0
  br i1 %cmp.not31, label %sw.epilog, label %while.body.lr.ph

while.body.lr.ph:                                 ; preds = %sw.bb
  %m_args.i = getelementptr inbounds i8, ptr %n, i64 32
  %m_cache.i = getelementptr inbounds i8, ptr %this, i64 24
  %e.sroa.3.0.ref.tmp.i.i.sroa_idx.i = getelementptr inbounds i8, ptr %ref.tmp.i.i.i, i64 8
  %m_todo.i = getelementptr inbounds i8, ptr %this, i64 56
  %1 = zext i32 %0 to i64
  br label %while.body

while.body:                                       ; preds = %while.body.lr.ph, %_ZN21pattern_inference_cfg7collect5visitEP4exprjRb.exit
  %indvars.iv = phi i64 [ %1, %while.body.lr.ph ], [ %2, %_ZN21pattern_inference_cfg7collect5visitEP4exprjRb.exit ]
  %visited.032 = phi i8 [ 1, %while.body.lr.ph ], [ %visited.1, %_ZN21pattern_inference_cfg7collect5visitEP4exprjRb.exit ]
  %2 = add nsw i64 %indvars.iv, -1
  %arrayidx.i = getelementptr inbounds [0 x ptr], ptr %m_args.i, i64 0, i64 %2
  %3 = load ptr, ptr %arrayidx.i, align 8
  call void @llvm.lifetime.start.p0(i64 24, ptr nonnull %ref.tmp.i.i.i)
  store ptr %3, ptr %ref.tmp.i.i.i, align 8
  store i32 %delta, ptr %e.sroa.3.0.ref.tmp.i.i.sroa_idx.i, align 8
  %call.i.i.i = call noundef ptr @_ZNK14core_hashtableI17default_map_entryIN21pattern_inference_cfg7collect5entryEPNS2_4infoEEN9table2mapIS6_8obj_hashIS3_E10default_eqIS3_EE15entry_hash_procENSC_13entry_eq_procEE9find_coreERK9_key_dataIS3_S5_E(ptr noundef nonnull align 8 dereferenceable(20) %m_cache.i, ptr noundef nonnull align 8 dereferenceable(24) %ref.tmp.i.i.i)
  call void @llvm.lifetime.end.p0(i64 24, ptr nonnull %ref.tmp.i.i.i)
  %cmp.i.not.i = icmp eq ptr %call.i.i.i, null
  br i1 %cmp.i.not.i, label %if.then.i, label %_ZN21pattern_inference_cfg7collect5visitEP4exprjRb.exit

if.then.i:                                        ; preds = %while.body
  %4 = load ptr, ptr %m_todo.i, align 8
  %cmp.i1.i = icmp eq ptr %4, null
  br i1 %cmp.i1.i, label %if.then.i.i, label %lor.lhs.false.i.i

lor.lhs.false.i.i:                                ; preds = %if.then.i
  %arrayidx.i.i = getelementptr inbounds i8, ptr %4, i64 -4
  %5 = load i32, ptr %arrayidx.i.i, align 4
  %arrayidx4.i.i = getelementptr inbounds i8, ptr %4, i64 -8
  %6 = load i32, ptr %arrayidx4.i.i, align 4
  %cmp5.i.i = icmp eq i32 %5, %6
  br i1 %cmp5.i.i, label %if.then.i.i, label %_ZN6vectorIN21pattern_inference_cfg7collect5entryELb0EjE9push_backERKS2_.exit.i

if.then.i.i:                                      ; preds = %lor.lhs.false.i.i, %if.then.i
  call void @_ZN6vectorIN21pattern_inference_cfg7collect5entryELb0EjE13expand_vectorEv(ptr noundef nonnull align 8 dereferenceable(8) %m_todo.i)
  %.pre.i.i = load ptr, ptr %m_todo.i, align 8
  %arrayidx8.phi.trans.insert.i.i = getelementptr inbounds i8, ptr %.pre.i.i, i64 -4
  %.pre1.i.i = load i32, ptr %arrayidx8.phi.trans.insert.i.i, align 4
  br label %_ZN6vectorIN21pattern_inference_cfg7collect5entryELb0EjE9push_backERKS2_.exit.i

_ZN6vectorIN21pattern_inference_cfg7collect5entryELb0EjE9push_backERKS2_.exit.i: ; preds = %if.then.i.i, %lor.lhs.false.i.i
  %7 = phi i32 [ %.pre1.i.i, %if.then.i.i ], [ %5, %lor.lhs.false.i.i ]
  %8 = phi ptr [ %.pre.i.i, %if.then.i.i ], [ %4, %lor.lhs.false.i.i ]
  %idx.ext.i.i = zext i32 %7 to i64
  %add.ptr.i.i = getelementptr inbounds %"struct.pattern_inference_cfg::collect::entry", ptr %8, i64 %idx.ext.i.i
  store ptr %3, ptr %add.ptr.i.i, align 8
  %e.sroa.3.0.add.ptr.i.sroa_idx.i = getelementptr inbounds i8, ptr %add.ptr.i.i, i64 8
  store i32 %delta, ptr %e.sroa.3.0.add.ptr.i.sroa_idx.i, align 8
  %9 = load ptr, ptr %m_todo.i, align 8
  %arrayidx10.i.i = getelementptr inbounds i8, ptr %9, i64 -4
  %10 = load i32, ptr %arrayidx10.i.i, align 4
  %inc.i.i = add i32 %10, 1
  store i32 %inc.i.i, ptr %arrayidx10.i.i, align 4
  br label %_ZN21pattern_inference_cfg7collect5visitEP4exprjRb.exit

_ZN21pattern_inference_cfg7collect5visitEP4exprjRb.exit: ; preds = %while.body, %_ZN6vectorIN21pattern_inference_cfg7collect5entryELb0EjE9push_backERKS2_.exit.i
  %visited.1 = phi i8 [ 0, %_ZN6vectorIN21pattern_inference_cfg7collect5entryELb0EjE9push_backERKS2_.exit.i ], [ %visited.032, %while.body ]
  %cmp.not.wide = icmp eq i64 %2, 0
  br i1 %cmp.not.wide, label %sw.epilog.loopexit, label %while.body, !llvm.loop !15

sw.bb6:                                           ; preds = %entry
  %m_expr.i = getelementptr inbounds i8, ptr %n, i64 24
  %11 = load ptr, ptr %m_expr.i, align 8
  %m_num_decls.i = getelementptr inbounds i8, ptr %n, i64 20
  %12 = load i32, ptr %m_num_decls.i, align 4
  %add = add i32 %12, %delta
  %m_cache.i9 = getelementptr inbounds i8, ptr %this, i64 24
  call void @llvm.lifetime.start.p0(i64 24, ptr nonnull %ref.tmp.i.i.i8)
  store ptr %11, ptr %ref.tmp.i.i.i8, align 8
  %e.sroa.3.0.ref.tmp.i.i.sroa_idx.i10 = getelementptr inbounds i8, ptr %ref.tmp.i.i.i8, i64 8
  store i32 %add, ptr %e.sroa.3.0.ref.tmp.i.i.sroa_idx.i10, align 8
  %call.i.i.i11 = call noundef ptr @_ZNK14core_hashtableI17default_map_entryIN21pattern_inference_cfg7collect5entryEPNS2_4infoEEN9table2mapIS6_8obj_hashIS3_E10default_eqIS3_EE15entry_hash_procENSC_13entry_eq_procEE9find_coreERK9_key_dataIS3_S5_E(ptr noundef nonnull align 8 dereferenceable(20) %m_cache.i9, ptr noundef nonnull align 8 dereferenceable(24) %ref.tmp.i.i.i8)
  call void @llvm.lifetime.end.p0(i64 24, ptr nonnull %ref.tmp.i.i.i8)
  %cmp.i.not.i12 = icmp eq ptr %call.i.i.i11, null
  br i1 %cmp.i.not.i12, label %if.then.i13, label %sw.epilog

if.then.i13:                                      ; preds = %sw.bb6
  %m_todo.i14 = getelementptr inbounds i8, ptr %this, i64 56
  %13 = load ptr, ptr %m_todo.i14, align 8
  %cmp.i1.i15 = icmp eq ptr %13, null
  br i1 %cmp.i1.i15, label %if.then.i.i26, label %lor.lhs.false.i.i16

lor.lhs.false.i.i16:                              ; preds = %if.then.i13
  %arrayidx.i.i17 = getelementptr inbounds i8, ptr %13, i64 -4
  %14 = load i32, ptr %arrayidx.i.i17, align 4
  %arrayidx4.i.i18 = getelementptr inbounds i8, ptr %13, i64 -8
  %15 = load i32, ptr %arrayidx4.i.i18, align 4
  %cmp5.i.i19 = icmp eq i32 %14, %15
  br i1 %cmp5.i.i19, label %if.then.i.i26, label %_ZN6vectorIN21pattern_inference_cfg7collect5entryELb0EjE9push_backERKS2_.exit.i20

if.then.i.i26:                                    ; preds = %lor.lhs.false.i.i16, %if.then.i13
  call void @_ZN6vectorIN21pattern_inference_cfg7collect5entryELb0EjE13expand_vectorEv(ptr noundef nonnull align 8 dereferenceable(8) %m_todo.i14)
  %.pre.i.i27 = load ptr, ptr %m_todo.i14, align 8
  %arrayidx8.phi.trans.insert.i.i28 = getelementptr inbounds i8, ptr %.pre.i.i27, i64 -4
  %.pre1.i.i29 = load i32, ptr %arrayidx8.phi.trans.insert.i.i28, align 4
  br label %_ZN6vectorIN21pattern_inference_cfg7collect5entryELb0EjE9push_backERKS2_.exit.i20

_ZN6vectorIN21pattern_inference_cfg7collect5entryELb0EjE9push_backERKS2_.exit.i20: ; preds = %if.then.i.i26, %lor.lhs.false.i.i16
  %16 = phi i32 [ %.pre1.i.i29, %if.then.i.i26 ], [ %14, %lor.lhs.false.i.i16 ]
  %17 = phi ptr [ %.pre.i.i27, %if.then.i.i26 ], [ %13, %lor.lhs.false.i.i16 ]
  %idx.ext.i.i21 = zext i32 %16 to i64
  %add.ptr.i.i22 = getelementptr inbounds %"struct.pattern_inference_cfg::collect::entry", ptr %17, i64 %idx.ext.i.i21
  store ptr %11, ptr %add.ptr.i.i22, align 8
  %e.sroa.3.0.add.ptr.i.sroa_idx.i23 = getelementptr inbounds i8, ptr %add.ptr.i.i22, i64 8
  store i32 %add, ptr %e.sroa.3.0.add.ptr.i.sroa_idx.i23, align 8
  %18 = load ptr, ptr %m_todo.i14, align 8
  %arrayidx10.i.i24 = getelementptr inbounds i8, ptr %18, i64 -4
  %19 = load i32, ptr %arrayidx10.i.i24, align 4
  %inc.i.i25 = add i32 %19, 1
  store i32 %inc.i.i25, ptr %arrayidx10.i.i24, align 4
  br label %sw.epilog

sw.epilog.loopexit:                               ; preds = %_ZN21pattern_inference_cfg7collect5visitEP4exprjRb.exit
  %20 = and i8 %visited.1, 1
  %21 = icmp ne i8 %20, 0
  br label %sw.epilog

sw.epilog:                                        ; preds = %sw.epilog.loopexit, %sw.bb, %_ZN6vectorIN21pattern_inference_cfg7collect5entryELb0EjE9push_backERKS2_.exit.i20, %sw.bb6, %entry
  %visited.3 = phi i1 [ true, %entry ], [ false, %_ZN6vectorIN21pattern_inference_cfg7collect5entryELb0EjE9push_backERKS2_.exit.i20 ], [ true, %sw.bb6 ], [ true, %sw.bb ], [ %21, %sw.epilog.loopexit ]
  ret i1 %visited.3
}